target datalayout = "e-m:e-p270:32:32-p271:32:32-p272:64:64-i64:64-i128:128-f80:128-n8:16:32:64-S128"
target triple = "x86_64-unknown-linux-gnu"

%struct.btDbvtBroadphase = type { %class.btBroadphaseInterface, [2 x %struct.btDbvt], [3 x ptr], ptr, float, i32, i32, i32, i32, i32, i32, i32, i32, float, i32, i32, i32, i8, i8, i8, i8, %class.btAlignedObjectArray.0 }
%class.btBroadphaseInterface = type { ptr }
%struct.btDbvt = type { ptr, ptr, i32, i32, i32, [4 x i8], %class.btAlignedObjectArray }
%class.btAlignedObjectArray = type <{ %class.btAlignedAllocator, [3 x i8], i32, i32, [4 x i8], ptr, i8, [7 x i8] }>
%class.btAlignedAllocator = type { i8 }
%class.btAlignedObjectArray.0 = type <{ %class.btAlignedAllocator.1, [3 x i8], i32, i32, [4 x i8], ptr, i8, [7 x i8] }>
%class.btAlignedAllocator.1 = type { i8 }
%struct.btDbvtAabbMm = type { %class.btVector3, %class.btVector3 }
%class.btVector3 = type { [4 x float] }
%struct.btDbvtTreeCollider = type { %"struct.btDbvt::ICollide", ptr, ptr }
%"struct.btDbvt::ICollide" = type { ptr }
%struct.btDbvtProxy = type <{ %struct.btBroadphaseProxy.base, [4 x i8], ptr, [2 x ptr], i32, [4 x i8] }>
%struct.btBroadphaseProxy.base = type <{ ptr, i32, i32, i32, %class.btVector3, %class.btVector3 }>
%struct.btBroadphaseProxy = type <{ ptr, i32, i32, i32, %class.btVector3, %class.btVector3, [4 x i8] }>

; Function Attrs: mustprogress nounwind uwtable
define linkonce_odr dso_local void @_ZN9btVector3C2Ev(ptr noundef nonnull align 4 dereferenceable(16) %this) unnamed_addr #1 comdat align 2 {
entry:
  %this.addr = alloca ptr, align 8
  store ptr %this, ptr %this.addr, align 8
  ret void
}

; Function Attrs: mustprogress nounwind uwtable
define linkonce_odr dso_local void @_ZN6btDbvt8ICollideD2Ev(ptr noundef nonnull align 8 dereferenceable(8) %this) unnamed_addr #1 comdat align 2 {
entry:
  %this.addr = alloca ptr, align 8
  store ptr %this, ptr %this.addr, align 8
  ret void
}

; Function Attrs: mustprogress nounwind uwtable
define linkonce_odr dso_local void @_ZN6btDbvt8ICollideC2Ev(ptr noundef nonnull align 8 dereferenceable(8) %this) unnamed_addr #1 comdat align 2 {
entry:
  %this.addr = alloca ptr, align 8
  store ptr %this, ptr %this.addr, align 8
  %this1 = load ptr, ptr %this.addr, align 8
  store ptr getelementptr inbounds ({ [10 x ptr] }, ptr @_ZTVN6btDbvt8ICollideE, i32 0, i32 0, i32 2), ptr %this1, align 8
  ret void
}

; Function Attrs: mustprogress uwtable
define linkonce_odr dso_local void @_ZN12btDbvtAabbMmC2Ev(ptr noundef nonnull align 4 dereferenceable(32) %this) unnamed_addr #2 comdat align 2 {
entry:
  %this.addr = alloca ptr, align 8
  store ptr %this, ptr %this.addr, align 8
  %this1 = load ptr, ptr %this.addr, align 8
  %mi = getelementptr inbounds %struct.btDbvtAabbMm, ptr %this1, i32 0, i32 0
  call void @_ZN9btVector3C2Ev(ptr noundef nonnull align 4 dereferenceable(16) %mi)
  %mx = getelementptr inbounds %struct.btDbvtAabbMm, ptr %this1, i32 0, i32 1
  call void @_ZN9btVector3C2Ev(ptr noundef nonnull align 4 dereferenceable(16) %mx)
  ret void
}

; Function Attrs: mustprogress nounwind uwtable
define linkonce_odr dso_local void @_ZN17btBroadphaseProxyC2ERK9btVector3S2_Pvii(ptr noundef nonnull align 8 dereferenceable(52) %this, ptr noundef nonnull align 4 dereferenceable(16) %aabbMin, ptr noundef nonnull align 4 dereferenceable(16) %aabbMax, ptr noundef %userPtr, i32 noundef %collisionFilterGroup, i32 noundef %collisionFilterMask) unnamed_addr #1 comdat align 2 {
entry:
  %this.addr = alloca ptr, align 8
  %aabbMin.addr = alloca ptr, align 8
  %aabbMax.addr = alloca ptr, align 8
  %userPtr.addr = alloca ptr, align 8
  %collisionFilterGroup.addr = alloca i32, align 4
  %collisionFilterMask.addr = alloca i32, align 4
  store ptr %this, ptr %this.addr, align 8
  store ptr %aabbMin, ptr %aabbMin.addr, align 8
  store ptr %aabbMax, ptr %aabbMax.addr, align 8
  store ptr %userPtr, ptr %userPtr.addr, align 8
  store i32 %collisionFilterGroup, ptr %collisionFilterGroup.addr, align 4
  store i32 %collisionFilterMask, ptr %collisionFilterMask.addr, align 4
  %this1 = load ptr, ptr %this.addr, align 8
  %m_clientObject = getelementptr inbounds %struct.btBroadphaseProxy, ptr %this1, i32 0, i32 0
  %0 = load ptr, ptr %userPtr.addr, align 8
  store ptr %0, ptr %m_clientObject, align 8
  %m_collisionFilterGroup = getelementptr inbounds %struct.btBroadphaseProxy, ptr %this1, i32 0, i32 1
  %1 = load i32, ptr %collisionFilterGroup.addr, align 4
  store i32 %1, ptr %m_collisionFilterGroup, align 8
  %m_collisionFilterMask = getelementptr inbounds %struct.btBroadphaseProxy, ptr %this1, i32 0, i32 2
  %2 = load i32, ptr %collisionFilterMask.addr, align 4
  store i32 %2, ptr %m_collisionFilterMask, align 4
  %m_aabbMin = getelementptr inbounds %struct.btBroadphaseProxy, ptr %this1, i32 0, i32 4
  %3 = load ptr, ptr %aabbMin.addr, align 8
  call void @llvm.memcpy.p0.p0.i64(ptr align 4 %m_aabbMin, ptr align 4 %3, i64 16, i1 false)
  %m_aabbMax = getelementptr inbounds %struct.btBroadphaseProxy, ptr %this1, i32 0, i32 5
  %4 = load ptr, ptr %aabbMax.addr, align 8
  call void @llvm.memcpy.p0.p0.i64(ptr align 4 %m_aabbMax, ptr align 4 %4, i64 16, i1 false)
  ret void
}

; Function Attrs: mustprogress nounwind uwtable
define linkonce_odr dso_local void @_ZN17btBroadphaseProxydlEPvS0_(ptr noundef %0, ptr noundef %1) #1 comdat align 2 {
entry:
  %.addr = alloca ptr, align 8
  %.addr1 = alloca ptr, align 8
  store ptr %0, ptr %.addr, align 8
  store ptr %1, ptr %.addr1, align 8
  ret void
}

; Function Attrs: mustprogress nounwind uwtable
define linkonce_odr dso_local void @_ZN18btDbvtTreeColliderD2Ev(ptr noundef nonnull align 8 dereferenceable(24) %this) unnamed_addr #1 comdat align 2 {
entry:
  %this.addr = alloca ptr, align 8
  store ptr %this, ptr %this.addr, align 8
  %this1 = load ptr, ptr %this.addr, align 8
  call void @_ZN6btDbvt8ICollideD2Ev(ptr noundef nonnull align 8 dereferenceable(8) %this1) #10
  ret void
}

; Function Attrs: mustprogress nounwind uwtable
define linkonce_odr dso_local void @_ZN18btDbvtTreeColliderC2EP16btDbvtBroadphase(ptr noundef nonnull align 8 dereferenceable(24) %this, ptr noundef %p) unnamed_addr #1 comdat align 2 {
entry:
  %this.addr = alloca ptr, align 8
  %p.addr = alloca ptr, align 8
  store ptr %this, ptr %this.addr, align 8
  store ptr %p, ptr %p.addr, align 8
  %this1 = load ptr, ptr %this.addr, align 8
  call void @_ZN6btDbvt8ICollideC2Ev(ptr noundef nonnull align 8 dereferenceable(8) %this1) #10
  store ptr getelementptr inbounds ({ [10 x ptr] }, ptr @_ZTV18btDbvtTreeCollider, i32 0, i32 0, i32 2), ptr %this1, align 8
  %pbp = getelementptr inbounds %struct.btDbvtTreeCollider, ptr %this1, i32 0, i32 1
  %0 = load ptr, ptr %p.addr, align 8
  store ptr %0, ptr %pbp, align 8
  ret void
}

; Function Attrs: mustprogress nounwind uwtable
define internal void @_ZL10listappendI11btDbvtProxyEvPT_RS2_(ptr noundef %item, ptr noundef nonnull align 8 dereferenceable(8) %list) #1 {
entry:
  %item.addr = alloca ptr, align 8
  %list.addr = alloca ptr, align 8
  store ptr %item, ptr %item.addr, align 8
  store ptr %list, ptr %list.addr, align 8
  %0 = load ptr, ptr %item.addr, align 8
  %links = getelementptr inbounds %struct.btDbvtProxy, ptr %0, i32 0, i32 3
  %arrayidx = getelementptr inbounds [2 x ptr], ptr %links, i64 0, i64 0
  store ptr null, ptr %arrayidx, align 8
  %1 = load ptr, ptr %list.addr, align 8
  %2 = load ptr, ptr %1, align 8
  %3 = load ptr, ptr %item.addr, align 8
  %links1 = getelementptr inbounds %struct.btDbvtProxy, ptr %3, i32 0, i32 3
  %arrayidx2 = getelementptr inbounds [2 x ptr], ptr %links1, i64 0, i64 1
  store ptr %2, ptr %arrayidx2, align 8
  %4 = load ptr, ptr %list.addr, align 8
  %5 = load ptr, ptr %4, align 8
  %tobool = icmp ne ptr %5, null
  br i1 %tobool, label %if.then, label %if.end

if.then:                                          ; preds = %entry
  %6 = load ptr, ptr %item.addr, align 8
  %7 = load ptr, ptr %list.addr, align 8
  %8 = load ptr, ptr %7, align 8
  %links3 = getelementptr inbounds %struct.btDbvtProxy, ptr %8, i32 0, i32 3
  %arrayidx4 = getelementptr inbounds [2 x ptr], ptr %links3, i64 0, i64 0
  store ptr %6, ptr %arrayidx4, align 8
  br label %if.end

if.end:                                           ; preds = %if.then, %entry
  %9 = load ptr, ptr %item.addr, align 8
  %10 = load ptr, ptr %list.addr, align 8
  store ptr %9, ptr %10, align 8
  ret void
}

; Function Attrs: mustprogress uwtable
define linkonce_odr dso_local void @_ZN12btDbvtAabbMm6FromMMERK9btVector3S2_(ptr noalias sret(%struct.btDbvtAabbMm) align 4 %agg.result, ptr noundef nonnull align 4 dereferenceable(16) %mi, ptr noundef nonnull align 4 dereferenceable(16) %mx) #2 comdat align 2 {
entry:
  %mi.addr = alloca ptr, align 8
  %mx.addr = alloca ptr, align 8
  store ptr %mi, ptr %mi.addr, align 8
  store ptr %mx, ptr %mx.addr, align 8
  call void @_ZN12btDbvtAabbMmC2Ev(ptr noundef nonnull align 4 dereferenceable(32) %agg.result)
  %0 = load ptr, ptr %mi.addr, align 8
  %mi1 = getelementptr inbounds %struct.btDbvtAabbMm, ptr %agg.result, i32 0, i32 0
  call void @llvm.memcpy.p0.p0.i64(ptr align 4 %mi1, ptr align 4 %0, i64 16, i1 false)
  %1 = load ptr, ptr %mx.addr, align 8
  %mx2 = getelementptr inbounds %struct.btDbvtAabbMm, ptr %agg.result, i32 0, i32 1
  call void @llvm.memcpy.p0.p0.i64(ptr align 4 %mx2, ptr align 4 %1, i64 16, i1 false)
  ret void
}

; Function Attrs: mustprogress uwtable
define linkonce_odr dso_local void @_ZN11btDbvtProxyC2ERK9btVector3S2_Pvii(ptr noundef nonnull align 8 dereferenceable(84) %this, ptr noundef nonnull align 4 dereferenceable(16) %aabbMin, ptr noundef nonnull align 4 dereferenceable(16) %aabbMax, ptr noundef %userPtr, i32 noundef %collisionFilterGroup, i32 noundef %collisionFilterMask) unnamed_addr #2 comdat align 2 {
entry:
  %this.addr = alloca ptr, align 8
  %aabbMin.addr = alloca ptr, align 8
  %aabbMax.addr = alloca ptr, align 8
  %userPtr.addr = alloca ptr, align 8
  %collisionFilterGroup.addr = alloca i32, align 4
  %collisionFilterMask.addr = alloca i32, align 4
  store ptr %this, ptr %this.addr, align 8
  store ptr %aabbMin, ptr %aabbMin.addr, align 8
  store ptr %aabbMax, ptr %aabbMax.addr, align 8
  store ptr %userPtr, ptr %userPtr.addr, align 8
  store i32 %collisionFilterGroup, ptr %collisionFilterGroup.addr, align 4
  store i32 %collisionFilterMask, ptr %collisionFilterMask.addr, align 4
  %this1 = load ptr, ptr %this.addr, align 8
  %0 = load ptr, ptr %aabbMin.addr, align 8
  %1 = load ptr, ptr %aabbMax.addr, align 8
  %2 = load ptr, ptr %userPtr.addr, align 8
  %3 = load i32, ptr %collisionFilterGroup.addr, align 4
  %4 = load i32, ptr %collisionFilterMask.addr, align 4
  call void @_ZN17btBroadphaseProxyC2ERK9btVector3S2_Pvii(ptr noundef nonnull align 8 dereferenceable(52) %this1, ptr noundef nonnull align 4 dereferenceable(16) %0, ptr noundef nonnull align 4 dereferenceable(16) %1, ptr noundef %2, i32 noundef %3, i32 noundef %4)
  %links = getelementptr inbounds %struct.btDbvtProxy, ptr %this1, i32 0, i32 3
  %arrayidx = getelementptr inbounds [2 x ptr], ptr %links, i64 0, i64 1
  store ptr null, ptr %arrayidx, align 8
  %links2 = getelementptr inbounds %struct.btDbvtProxy, ptr %this1, i32 0, i32 3
  %arrayidx3 = getelementptr inbounds [2 x ptr], ptr %links2, i64 0, i64 0
  store ptr null, ptr %arrayidx3, align 8
  ret void
}

; Function Attrs: mustprogress nounwind uwtable
define linkonce_odr dso_local noundef ptr @_ZN17btBroadphaseProxynwEmPv(i64 noundef %0, ptr noundef %ptr) #1 comdat align 2 {
entry:
  %.addr = alloca i64, align 8
  %ptr.addr = alloca ptr, align 8
  store i64 %0, ptr %.addr, align 8
  store ptr %ptr, ptr %ptr.addr, align 8
  %1 = load ptr, ptr %ptr.addr, align 8
  ret ptr %1
}

; Function Attrs: mustprogress uwtable
define dso_local noundef ptr @_ZN16btDbvtBroadphase11createProxyERK9btVector3S2_iPviiP12btDispatcher(ptr noundef nonnull align 8 dereferenceable(256) %this, ptr noundef nonnull align 4 dereferenceable(16) %aabbMin, ptr noundef nonnull align 4 dereferenceable(16) %aabbMax, i32 noundef %0, ptr noundef %userPtr, i32 noundef %collisionFilterGroup, i32 noundef %collisionFilterMask, ptr noundef %1) unnamed_addr #2 align 2 personality ptr @__gxx_personality_v0 {
entry:
  %this.addr = alloca ptr, align 8
  %aabbMin.addr = alloca ptr, align 8
  %aabbMax.addr = alloca ptr, align 8
  %.addr = alloca i32, align 4
  %userPtr.addr = alloca ptr, align 8
  %collisionFilterGroup.addr = alloca i32, align 4
  %collisionFilterMask.addr = alloca i32, align 4
  %.addr1 = alloca ptr, align 8
  %proxy = alloca ptr, align 8
  %exn.slot = alloca ptr, align 8
  %ehselector.slot = alloca i32, align 4
  %aabb = alloca %struct.btDbvtAabbMm, align 4
  %collider = alloca %struct.btDbvtTreeCollider, align 8
  store ptr %this, ptr %this.addr, align 8
  store ptr %aabbMin, ptr %aabbMin.addr, align 8
  store ptr %aabbMax, ptr %aabbMax.addr, align 8
  store i32 %0, ptr %.addr, align 4
  store ptr %userPtr, ptr %userPtr.addr, align 8
  store i32 %collisionFilterGroup, ptr %collisionFilterGroup.addr, align 4
  store i32 %collisionFilterMask, ptr %collisionFilterMask.addr, align 4
  store ptr %1, ptr %.addr1, align 8
  %this2 = load ptr, ptr %this.addr, align 8
  %call = call noundef ptr @_Z22btAlignedAllocInternalmi(i64 noundef 88, i32 noundef 16)
  %call3 = call noundef ptr @_ZN17btBroadphaseProxynwEmPv(i64 noundef 88, ptr noundef %call)
  %2 = load ptr, ptr %aabbMin.addr, align 8
  %3 = load ptr, ptr %aabbMax.addr, align 8
  %4 = load ptr, ptr %userPtr.addr, align 8
  %5 = load i32, ptr %collisionFilterGroup.addr, align 4
  %6 = load i32, ptr %collisionFilterMask.addr, align 4
  invoke void @_ZN11btDbvtProxyC2ERK9btVector3S2_Pvii(ptr noundef nonnull align 8 dereferenceable(84) %call3, ptr noundef nonnull align 4 dereferenceable(16) %2, ptr noundef nonnull align 4 dereferenceable(16) %3, ptr noundef %4, i32 noundef %5, i32 noundef %6)
          to label %invoke.cont unwind label %lpad

invoke.cont:                                      ; preds = %entry
  store ptr %call3, ptr %proxy, align 8
  %7 = load ptr, ptr %aabbMin.addr, align 8
  %8 = load ptr, ptr %aabbMax.addr, align 8
  call void @_ZN12btDbvtAabbMm6FromMMERK9btVector3S2_(ptr sret(%struct.btDbvtAabbMm) align 4 %aabb, ptr noundef nonnull align 4 dereferenceable(16) %7, ptr noundef nonnull align 4 dereferenceable(16) %8)
  %m_stageCurrent = getelementptr inbounds %struct.btDbvtBroadphase, ptr %this2, i32 0, i32 5
  %9 = load i32, ptr %m_stageCurrent, align 4
  %10 = load ptr, ptr %proxy, align 8
  %stage = getelementptr inbounds %struct.btDbvtProxy, ptr %10, i32 0, i32 4
  store i32 %9, ptr %stage, align 8
  %m_gid = getelementptr inbounds %struct.btDbvtBroadphase, ptr %this2, i32 0, i32 16
  %11 = load i32, ptr %m_gid, align 8
  %inc = add nsw i32 %11, 1
  store i32 %inc, ptr %m_gid, align 8
  %12 = load ptr, ptr %proxy, align 8
  %m_uniqueId = getelementptr inbounds %struct.btBroadphaseProxy, ptr %12, i32 0, i32 3
  store i32 %inc, ptr %m_uniqueId, align 8
  %m_sets = getelementptr inbounds %struct.btDbvtBroadphase, ptr %this2, i32 0, i32 1
  %arrayidx = getelementptr inbounds [2 x %struct.btDbvt], ptr %m_sets, i64 0, i64 0
  %13 = load ptr, ptr %proxy, align 8
  %call4 = call noundef ptr @_ZN6btDbvt6insertERK12btDbvtAabbMmPv(ptr noundef nonnull align 8 dereferenceable(64) %arrayidx, ptr noundef nonnull align 4 dereferenceable(32) %aabb, ptr noundef %13)
  %14 = load ptr, ptr %proxy, align 8
  %leaf = getelementptr inbounds %struct.btDbvtProxy, ptr %14, i32 0, i32 2
  store ptr %call4, ptr %leaf, align 8
  %15 = load ptr, ptr %proxy, align 8
  %m_stageRoots = getelementptr inbounds %struct.btDbvtBroadphase, ptr %this2, i32 0, i32 2
  %m_stageCurrent5 = getelementptr inbounds %struct.btDbvtBroadphase, ptr %this2, i32 0, i32 5
  %16 = load i32, ptr %m_stageCurrent5, align 4
  %idxprom = sext i32 %16 to i64
  %arrayidx6 = getelementptr inbounds [3 x ptr], ptr %m_stageRoots, i64 0, i64 %idxprom
  call void @_ZL10listappendI11btDbvtProxyEvPT_RS2_(ptr noundef %15, ptr noundef nonnull align 8 dereferenceable(8) %arrayidx6)
  %m_deferedcollide = getelementptr inbounds %struct.btDbvtBroadphase, ptr %this2, i32 0, i32 18
  %17 = load i8, ptr %m_deferedcollide, align 1
  %tobool = trunc i8 %17 to i1
  br i1 %tobool, label %if.end, label %if.then

if.then:                                          ; preds = %invoke.cont
  call void @_ZN18btDbvtTreeColliderC2EP16btDbvtBroadphase(ptr noundef nonnull align 8 dereferenceable(24) %collider, ptr noundef %this2)
  %18 = load ptr, ptr %proxy, align 8
  %proxy7 = getelementptr inbounds %struct.btDbvtTreeCollider, ptr %collider, i32 0, i32 2
  store ptr %18, ptr %proxy7, align 8
  %m_sets8 = getelementptr inbounds %struct.btDbvtBroadphase, ptr %this2, i32 0, i32 1
  %arrayidx9 = getelementptr inbounds [2 x %struct.btDbvt], ptr %m_sets8, i64 0, i64 0
  %m_sets10 = getelementptr inbounds %struct.btDbvtBroadphase, ptr %this2, i32 0, i32 1
  %arrayidx11 = getelementptr inbounds [2 x %struct.btDbvt], ptr %m_sets10, i64 0, i64 0
  %m_root = getelementptr inbounds %struct.btDbvt, ptr %arrayidx11, i32 0, i32 0
  %19 = load ptr, ptr %m_root, align 8
  invoke void @_ZNK6btDbvt9collideTVEPK10btDbvtNodeRK12btDbvtAabbMmRNS_8ICollideE(ptr noundef nonnull align 8 dereferenceable(64) %arrayidx9, ptr noundef %19, ptr noundef nonnull align 4 dereferenceable(32) %aabb, ptr noundef nonnull align 8 dereferenceable(8) %collider)
          to label %invoke.cont13 unwind label %lpad12

invoke.cont13:                                    ; preds = %if.then
  %m_sets14 = getelementptr inbounds %struct.btDbvtBroadphase, ptr %this2, i32 0, i32 1
  %arrayidx15 = getelementptr inbounds [2 x %struct.btDbvt], ptr %m_sets14, i64 0, i64 1
  %m_sets16 = getelementptr inbounds %struct.btDbvtBroadphase, ptr %this2, i32 0, i32 1
  %arrayidx17 = getelementptr inbounds [2 x %struct.btDbvt], ptr %m_sets16, i64 0, i64 1
  %m_root18 = getelementptr inbounds %struct.btDbvt, ptr %arrayidx17, i32 0, i32 0
  %20 = load ptr, ptr %m_root18, align 8
  invoke void @_ZNK6btDbvt9collideTVEPK10btDbvtNodeRK12btDbvtAabbMmRNS_8ICollideE(ptr noundef nonnull align 8 dereferenceable(64) %arrayidx15, ptr noundef %20, ptr noundef nonnull align 4 dereferenceable(32) %aabb, ptr noundef nonnull align 8 dereferenceable(8) %collider)
          to label %invoke.cont19 unwind label %lpad12

invoke.cont19:                                    ; preds = %invoke.cont13
  call void @_ZN18btDbvtTreeColliderD2Ev(ptr noundef nonnull align 8 dereferenceable(24) %collider) #10
  br label %if.end

lpad:                                             ; preds = %entry
  %21 = landingpad { ptr, i32 }
          cleanup
  %22 = extractvalue { ptr, i32 } %21, 0
  store ptr %22, ptr %exn.slot, align 8
  %23 = extractvalue { ptr, i32 } %21, 1
  store i32 %23, ptr %ehselector.slot, align 4
  call void @_ZN17btBroadphaseProxydlEPvS0_(ptr noundef %call3, ptr noundef %call) #10
  br label %eh.resume

lpad12:                                           ; preds = %invoke.cont13, %if.then
  %24 = landingpad { ptr, i32 }
          cleanup
  %25 = extractvalue { ptr, i32 } %24, 0
  store ptr %25, ptr %exn.slot, align 8
  %26 = extractvalue { ptr, i32 } %24, 1
  store i32 %26, ptr %ehselector.slot, align 4
  call void @_ZN18btDbvtTreeColliderD2Ev(ptr noundef nonnull align 8 dereferenceable(24) %collider) #10
  br label %eh.resume

if.end:                                           ; preds = %invoke.cont19, %invoke.cont
  %27 = load ptr, ptr %proxy, align 8
  ret ptr %27

eh.resume:                                        ; preds = %lpad12, %lpad
  %exn = load ptr, ptr %exn.slot, align 8
  %sel = load i32, ptr %ehselector.slot, align 4
  %lpad.val = insertvalue { ptr, i32 } poison, ptr %exn, 0
  %lpad.val20 = insertvalue { ptr, i32 } %lpad.val, i32 %sel, 1
  resume { ptr, i32 } %lpad.val20
}