; Function Attrs: mustprogress uwtable
define dso_local noundef ptr @_ZN16btDbvtBroadphase11createProxyERK9btVector3S2_iPviiP12btDispatcher(ptr noundef nonnull align 8 dereferenceable(256) %this, ptr nocapture noundef nonnull readonly align 4 dereferenceable(16) %aabbMin, ptr nocapture noundef nonnull readonly align 4 dereferenceable(16) %aabbMax, i32 %0, ptr noundef %userPtr, i32 noundef %collisionFilterGroup, i32 noundef %collisionFilterMask, ptr nocapture readnone %1) unnamed_addr #0 align 2 personality ptr @__gxx_personality_v0 {
invoke.cont:
  %aabb = alloca %struct.btDbvtAabbMm, align 4
  %collider = alloca %struct.btDbvtTreeCollider, align 8
  %call = tail call noundef ptr @_Z22btAlignedAllocInternalmi(i64 noundef 88, i32 noundef 16)
  store ptr %userPtr, ptr %call, align 8
  %m_collisionFilterGroup.i.i = getelementptr inbounds i8, ptr %call, i64 8
  store i32 %collisionFilterGroup, ptr %m_collisionFilterGroup.i.i, align 8
  %m_collisionFilterMask.i.i = getelementptr inbounds i8, ptr %call, i64 12
  store i32 %collisionFilterMask, ptr %m_collisionFilterMask.i.i, align 4
  %m_aabbMin.i.i = getelementptr inbounds i8, ptr %call, i64 20
  tail call void @llvm.memcpy.p0.p0.i64(ptr noundef nonnull align 4 dereferenceable(16) %m_aabbMin.i.i, ptr noundef nonnull align 4 dereferenceable(16) %aabbMin, i64 16, i1 false)
  %m_aabbMax.i.i = getelementptr inbounds i8, ptr %call, i64 36
  tail call void @llvm.memcpy.p0.p0.i64(ptr noundef nonnull align 4 dereferenceable(16) %m_aabbMax.i.i, ptr noundef nonnull align 4 dereferenceable(16) %aabbMax, i64 16, i1 false)
  %links.i = getelementptr inbounds i8, ptr %call, i64 64
  tail call void @llvm.memset.p0.i64(ptr noundef nonnull align 8 dereferenceable(16) %links.i, i8 0, i64 16, i1 false)
  call void @llvm.memcpy.p0.p0.i64(ptr noundef nonnull align 4 dereferenceable(16) %aabb, ptr noundef nonnull align 4 dereferenceable(16) %aabbMin, i64 16, i1 false)
  %mx2.i = getelementptr inbounds i8, ptr %aabb, i64 16
  call void @llvm.memcpy.p0.p0.i64(ptr noundef nonnull align 4 dereferenceable(16) %mx2.i, ptr noundef nonnull align 4 dereferenceable(16) %aabbMax, i64 16, i1 false)
  %m_stageCurrent = getelementptr inbounds i8, ptr %this, i64 172
  %2 = load i32, ptr %m_stageCurrent, align 4
  %stage = getelementptr inbounds i8, ptr %call, i64 80
  store i32 %2, ptr %stage, align 8
  %m_gid = getelementptr inbounds i8, ptr %this, i64 216
  %3 = load i32, ptr %m_gid, align 8
  %inc = add nsw i32 %3, 1
  store i32 %inc, ptr %m_gid, align 8
  %m_uniqueId = getelementptr inbounds i8, ptr %call, i64 16
  store i32 %inc, ptr %m_uniqueId, align 8
  %m_sets = getelementptr inbounds i8, ptr %this, i64 8
  %call4 = call noundef ptr @_ZN6btDbvt6insertERK12btDbvtAabbMmPv(ptr noundef nonnull align 8 dereferenceable(64) %m_sets, ptr noundef nonnull align 4 dereferenceable(32) %aabb, ptr noundef nonnull %call)
  %leaf = getelementptr inbounds i8, ptr %call, i64 56
  store ptr %call4, ptr %leaf, align 8
  %m_stageRoots = getelementptr inbounds i8, ptr %this, i64 136
  %4 = load i32, ptr %m_stageCurrent, align 4
  %idxprom = sext i32 %4 to i64
  %arrayidx6 = getelementptr inbounds [3 x ptr], ptr %m_stageRoots, i64 0, i64 %idxprom
  store ptr null, ptr %links.i, align 8
  %5 = load ptr, ptr %arrayidx6, align 8
  %arrayidx2.i = getelementptr inbounds i8, ptr %call, i64 72
  store ptr %5, ptr %arrayidx2.i, align 8
  %tobool.not.i = icmp eq ptr %5, null
  br i1 %tobool.not.i, label %_ZL10listappendI11btDbvtProxyEvPT_RS2_.exit, label %if.then.i

if.then.i:                                        ; preds = %invoke.cont
  %links3.i = getelementptr inbounds i8, ptr %5, i64 64
  store ptr %call, ptr %links3.i, align 8
  br label %_ZL10listappendI11btDbvtProxyEvPT_RS2_.exit

_ZL10listappendI11btDbvtProxyEvPT_RS2_.exit:      ; preds = %invoke.cont, %if.then.i
  store ptr %call, ptr %arrayidx6, align 8
  %m_deferedcollide = getelementptr inbounds i8, ptr %this, i64 221
  %6 = load i8, ptr %m_deferedcollide, align 1
  %7 = and i8 %6, 1
  %tobool.not = icmp eq i8 %7, 0
  br i1 %tobool.not, label %if.then, label %if.end

if.then:                                          ; preds = %_ZL10listappendI11btDbvtProxyEvPT_RS2_.exit
  store ptr getelementptr inbounds ({ [10 x ptr] }, ptr @_ZTV18btDbvtTreeCollider, i64 0, i32 0, i64 2), ptr %collider, align 8
  %pbp.i = getelementptr inbounds i8, ptr %collider, i64 8
  store ptr %this, ptr %pbp.i, align 8
  %proxy7 = getelementptr inbounds i8, ptr %collider, i64 16
  store ptr %call, ptr %proxy7, align 8
  %8 = load ptr, ptr %m_sets, align 8
  call void @_ZNK6btDbvt9collideTVEPK10btDbvtNodeRK12btDbvtAabbMmRNS_8ICollideE(ptr noundef nonnull align 8 dereferenceable(64) %m_sets, ptr noundef %8, ptr noundef nonnull align 4 dereferenceable(32) %aabb, ptr noundef nonnull align 8 dereferenceable(8) %collider)
  %arrayidx15 = getelementptr inbounds i8, ptr %this, i64 72
  %9 = load ptr, ptr %arrayidx15, align 8
  call void @_ZNK6btDbvt9collideTVEPK10btDbvtNodeRK12btDbvtAabbMmRNS_8ICollideE(ptr noundef nonnull align 8 dereferenceable(64) %arrayidx15, ptr noundef %9, ptr noundef nonnull align 4 dereferenceable(32) %aabb, ptr noundef nonnull align 8 dereferenceable(8) %collider)
  br label %if.end

if.end:                                           ; preds = %if.then, %_ZL10listappendI11btDbvtProxyEvPT_RS2_.exit
  ret ptr %call
}